; Function Attrs: nounwind uwtable
define ptr @l_Lean_Compiler_FFI_getLinkerFlags(ptr noundef %0, i8 noundef zeroext %1) local_unnamed_addr #0 {
  %3 = load ptr, ptr @l_Lean_Compiler_FFI_getLinkerFlags___closed__1, align 8, !tbaa !4
  %4 = tail call ptr @l_System_FilePath_join(ptr noundef %0, ptr noundef %3) #3
  %5 = load ptr, ptr @l_Lean_Compiler_FFI_getLinkerFlags___closed__2, align 8, !tbaa !4
  %6 = tail call ptr @l_System_FilePath_join(ptr noundef %4, ptr noundef %5) #3
  tail call void @lean_inc_heartbeat() #3
  %7 = tail call noalias ptr @mi_malloc_small(i64 noundef 24) #3
  %8 = icmp eq ptr %7, null
  br i1 %8, label %9, label %lean_alloc_ctor.exit

9:                                                ; preds = %2
  tail call void @lean_internal_panic_out_of_memory() #4
  unreachable

lean_alloc_ctor.exit:                             ; preds = %2
  %10 = getelementptr inbounds nuw i8, ptr %7, i64 4
  store i32 1, ptr %7, align 4, !tbaa !8
  store i32 16908312, ptr %10, align 4
  %11 = getelementptr inbounds nuw i8, ptr %7, i64 8
  store ptr %6, ptr %11, align 8, !tbaa !4
  %12 = getelementptr inbounds nuw i8, ptr %7, i64 16
  store ptr inttoptr (i64 1 to ptr), ptr %12, align 8, !tbaa !4
  %13 = load ptr, ptr @l_Lean_Compiler_FFI_getLinkerFlags___closed__3, align 8, !tbaa !4
  tail call void @lean_inc_heartbeat() #3
  %14 = tail call noalias ptr @mi_malloc_small(i64 noundef 24) #3
  %15 = icmp eq ptr %14, null
  br i1 %15, label %16, label %lean_alloc_ctor.exit17

16:                                               ; preds = %lean_alloc_ctor.exit
  tail call void @lean_internal_panic_out_of_memory() #4
  unreachable

lean_alloc_ctor.exit17:                           ; preds = %lean_alloc_ctor.exit
  %17 = getelementptr inbounds nuw i8, ptr %14, i64 4
  store i32 1, ptr %14, align 4, !tbaa !8
  store i32 16908312, ptr %17, align 4
  %18 = getelementptr inbounds nuw i8, ptr %14, i64 8
  store ptr %13, ptr %18, align 8, !tbaa !4
  %19 = getelementptr inbounds nuw i8, ptr %14, i64 16
  store ptr %7, ptr %19, align 8, !tbaa !4
  %20 = tail call ptr @lean_array_mk(ptr noundef nonnull %14) #3
  %21 = tail call ptr @lean_get_linker_flags(i8 noundef zeroext %1) #3
  %22 = tail call ptr @l___private_Lean_Compiler_FFI_0__Lean_Compiler_FFI_flagsStringToArray(ptr noundef %21)
  %23 = tail call ptr @l_Array_append___rarg(ptr noundef %20, ptr noundef %22) #3
  %24 = ptrtoint ptr %22 to i64
  %25 = and i64 %24, 1
  %.not = icmp eq i64 %25, 0
  br i1 %.not, label %26, label %lean_dec.exit

26:                                               ; preds = %lean_alloc_ctor.exit17
  %27 = load i32, ptr %22, align 4, !tbaa !8
  %28 = icmp sgt i32 %27, 1
  br i1 %28, label %29, label %31, !prof !11

29:                                               ; preds = %26
  %30 = add nsw i32 %27, -1
  store i32 %30, ptr %22, align 4, !tbaa !8
  br label %lean_dec.exit

31:                                               ; preds = %26
  %.not.i = icmp eq i32 %27, 0
  br i1 %.not.i, label %lean_dec.exit, label %32

32:                                               ; preds = %31
  tail call void @lean_dec_ref_cold(ptr noundef nonnull %22) #3
  br label %lean_dec.exit

lean_dec.exit:                                    ; preds = %32, %31, %29, %lean_alloc_ctor.exit17
  ret ptr %23
}